; Function Attrs: nounwind uwtable
define dso_local ptr @acct_storage_g_modify_job(ptr noundef %0, i32 noundef %1, ptr noundef %2, ptr noundef %3) local_unnamed_addr #0 {
  %5 = load i32, ptr @plugin_inited, align 4
  %6 = icmp eq i32 %5, 1
  br i1 %6, label %10, label %7

7:                                                ; preds = %4
  %8 = load ptr, ptr getelementptr inbounds nuw (i8, ptr @ops, i64 168), align 8
  %9 = tail call ptr %8(ptr noundef %0, i32 noundef %1, ptr noundef %2, ptr noundef %3) #8
  br label %10

10:                                               ; preds = %4, %7
  %.0 = phi ptr [ %9, %7 ], [ null, %4 ]
  ret ptr %.0
}